target datalayout = "e-m:e-p270:32:32-p271:32:32-p272:64:64-i64:64-i128:128-f80:128-n8:16:32:64-S128"
target triple = "x86_64-pc-linux-gnu"

%class.MemRegion = type { ptr, i64 }
%class.PSYoungGen = type { ptr, %class.MemRegion, ptr, ptr, ptr, ptr, i64, i64, ptr, ptr, ptr, ptr }

; Function Attrs: mustprogress nounwind uwtable
define linkonce_odr hidden noundef ptr @_ZNK10PSYoungGen10from_spaceEv(ptr noundef nonnull align 8 dereferenceable(104) %0) #1 comdat align 2 {
  %2 = alloca ptr, align 8
  store ptr %0, ptr %2, align 8
  %3 = load ptr, ptr %2, align 8
  %4 = getelementptr inbounds %class.PSYoungGen, ptr %3, i32 0, i32 4
  %5 = load ptr, ptr %4, align 8
  ret ptr %5
}

; Function Attrs: mustprogress nounwind uwtable
define linkonce_odr hidden noundef ptr @_ZNK10PSYoungGen10eden_spaceEv(ptr noundef nonnull align 8 dereferenceable(104) %0) #1 comdat align 2 {
  %2 = alloca ptr, align 8
  store ptr %0, ptr %2, align 8
  %3 = load ptr, ptr %2, align 8
  %4 = getelementptr inbounds %class.PSYoungGen, ptr %3, i32 0, i32 3
  %5 = load ptr, ptr %4, align 8
  ret ptr %5
}

; Function Attrs: mustprogress nounwind uwtable
define hidden noundef i64 @_ZNK10PSYoungGen13free_in_wordsEv(ptr noundef nonnull align 8 dereferenceable(104) %0) #1 align 2 {
  %2 = alloca ptr, align 8
  store ptr %0, ptr %2, align 8
  %3 = load ptr, ptr %2, align 8
  %4 = call noundef ptr @_ZNK10PSYoungGen10eden_spaceEv(ptr noundef nonnull align 8 dereferenceable(104) %3)
  %5 = load ptr, ptr %4, align 8
  %6 = getelementptr inbounds ptr, ptr %5, i64 11
  %7 = load ptr, ptr %6, align 8
  %8 = call noundef i64 %7(ptr noundef nonnull align 8 dereferenceable(56) %4)
  %9 = call noundef ptr @_ZNK10PSYoungGen10from_spaceEv(ptr noundef nonnull align 8 dereferenceable(104) %3)
  %10 = load ptr, ptr %9, align 8
  %11 = getelementptr inbounds ptr, ptr %10, i64 11
  %12 = load ptr, ptr %11, align 8
  %13 = call noundef i64 %12(ptr noundef nonnull align 8 dereferenceable(56) %9)
  %14 = add i64 %8, %13
  ret i64 %14
}